; ModuleID = '9/1284.c'
source_filename = "9/1284.c"
target datalayout = "e-m:e-p270:32:32-p271:32:32-p272:64:64-i64:64-f80:128-n8:16:32:64-S128"
target triple = "x86_64-pc-linux-gnu"

@.str = private unnamed_addr constant [3 x i8] c"%d\00", align 1
@.str.1 = private unnamed_addr constant [6 x i8] c"%s %d\00", align 1
@.str.2 = private unnamed_addr constant [4 x i8] c"%s\0A\00", align 1

; Function Attrs: noinline nounwind uwtable
define dso_local i32 @main() #0 {
  %1 = alloca i32, align 4
  %2 = alloca [100 x [100 x i8]], align 16
  %3 = alloca [100 x i32], align 16
  %4 = alloca [100 x i32], align 16
  %5 = alloca [100 x i32], align 16
  %6 = alloca i32, align 4
  %7 = alloca i32, align 4
  %8 = alloca i32, align 4
  %9 = alloca i32, align 4
  %10 = alloca i32, align 4
  %11 = alloca i32, align 4
  %12 = alloca i32, align 4
  store i32 0, i32* %1, align 4
  %13 = call i32 (i8*, ...) @__isoc99_scanf(i8* getelementptr inbounds ([3 x i8], [3 x i8]* @.str, i64 0, i64 0), i32* %6)
  store i32 0, i32* %10, align 4
  store i32 0, i32* %7, align 4
  br label %14

14:                                               ; preds = %47, %0
  %15 = load i32, i32* %7, align 4
  %16 = load i32, i32* %6, align 4
  %17 = icmp slt i32 %15, %16
  br i1 %17, label %18, label %50

18:                                               ; preds = %14
  %19 = load i32, i32* %7, align 4
  %20 = sext i32 %19 to i64
  %21 = getelementptr inbounds [100 x [100 x i8]], [100 x [100 x i8]]* %2, i64 0, i64 %20
  %22 = getelementptr inbounds [100 x i8], [100 x i8]* %21, i64 0, i64 0
  %23 = load i32, i32* %7, align 4
  %24 = sext i32 %23 to i64
  %25 = getelementptr inbounds [100 x i32], [100 x i32]* %4, i64 0, i64 %24
  %26 = call i32 (i8*, ...) @__isoc99_scanf(i8* getelementptr inbounds ([6 x i8], [6 x i8]* @.str.1, i64 0, i64 0), i8* %22, i32* %25)
  %27 = load i32, i32* %7, align 4
  %28 = sext i32 %27 to i64
  %29 = getelementptr inbounds [100 x i32], [100 x i32]* %4, i64 0, i64 %28
  %30 = load i32, i32* %29, align 4
  %31 = icmp sge i32 %30, 60
  br i1 %31, label %32, label %46

32:                                               ; preds = %18
  %33 = load i32, i32* %7, align 4
  %34 = load i32, i32* %10, align 4
  %35 = sext i32 %34 to i64
  %36 = getelementptr inbounds [100 x i32], [100 x i32]* %5, i64 0, i64 %35
  store i32 %33, i32* %36, align 4
  %37 = load i32, i32* %7, align 4
  %38 = sext i32 %37 to i64
  %39 = getelementptr inbounds [100 x i32], [100 x i32]* %4, i64 0, i64 %38
  %40 = load i32, i32* %39, align 4
  %41 = load i32, i32* %10, align 4
  %42 = sext i32 %41 to i64
  %43 = getelementptr inbounds [100 x i32], [100 x i32]* %3, i64 0, i64 %42
  store i32 %40, i32* %43, align 4
  %44 = load i32, i32* %10, align 4
  %45 = add nsw i32 %44, 1
  store i32 %45, i32* %10, align 4
  br label %46

46:                                               ; preds = %32, %18
  br label %47

47:                                               ; preds = %46
  %48 = load i32, i32* %7, align 4
  %49 = add nsw i32 %48, 1
  store i32 %49, i32* %7, align 4
  br label %14

50:                                               ; preds = %14
  store i32 1, i32* %9, align 4
  br label %51

51:                                               ; preds = %113, %50
  %52 = load i32, i32* %9, align 4
  %53 = load i32, i32* %10, align 4
  %54 = icmp sle i32 %52, %53
  br i1 %54, label %55, label %116

55:                                               ; preds = %51
  store i32 0, i32* %8, align 4
  br label %56

56:                                               ; preds = %109, %55
  %57 = load i32, i32* %8, align 4
  %58 = load i32, i32* %10, align 4
  %59 = load i32, i32* %9, align 4
  %60 = sub nsw i32 %58, %59
  %61 = icmp slt i32 %57, %60
  br i1 %61, label %62, label %112

62:                                               ; preds = %56
  %63 = load i32, i32* %8, align 4
  %64 = sext i32 %63 to i64
  %65 = getelementptr inbounds [100 x i32], [100 x i32]* %3, i64 0, i64 %64
  %66 = load i32, i32* %65, align 4
  %67 = load i32, i32* %8, align 4
  %68 = add nsw i32 %67, 1
  %69 = sext i32 %68 to i64
  %70 = getelementptr inbounds [100 x i32], [100 x i32]* %3, i64 0, i64 %69
  %71 = load i32, i32* %70, align 4
  %72 = icmp slt i32 %66, %71
  br i1 %72, label %73, label %108

73:                                               ; preds = %62
  %74 = load i32, i32* %8, align 4
  %75 = add nsw i32 %74, 1
  %76 = sext i32 %75 to i64
  %77 = getelementptr inbounds [100 x i32], [100 x i32]* %3, i64 0, i64 %76
  %78 = load i32, i32* %77, align 4
  store i32 %78, i32* %11, align 4
  %79 = load i32, i32* %8, align 4
  %80 = sext i32 %79 to i64
  %81 = getelementptr inbounds [100 x i32], [100 x i32]* %3, i64 0, i64 %80
  %82 = load i32, i32* %81, align 4
  %83 = load i32, i32* %8, align 4
  %84 = add nsw i32 %83, 1
  %85 = sext i32 %84 to i64
  %86 = getelementptr inbounds [100 x i32], [100 x i32]* %3, i64 0, i64 %85
  store i32 %82, i32* %86, align 4
  %87 = load i32, i32* %11, align 4
  %88 = load i32, i32* %8, align 4
  %89 = sext i32 %88 to i64
  %90 = getelementptr inbounds [100 x i32], [100 x i32]* %3, i64 0, i64 %89
  store i32 %87, i32* %90, align 4
  %91 = load i32, i32* %8, align 4
  %92 = add nsw i32 %91, 1
  %93 = sext i32 %92 to i64
  %94 = getelementptr inbounds [100 x i32], [100 x i32]* %5, i64 0, i64 %93
  %95 = load i32, i32* %94, align 4
  store i32 %95, i32* %12, align 4
  %96 = load i32, i32* %8, align 4
  %97 = sext i32 %96 to i64
  %98 = getelementptr inbounds [100 x i32], [100 x i32]* %5, i64 0, i64 %97
  %99 = load i32, i32* %98, align 4
  %100 = load i32, i32* %8, align 4
  %101 = add nsw i32 %100, 1
  %102 = sext i32 %101 to i64
  %103 = getelementptr inbounds [100 x i32], [100 x i32]* %5, i64 0, i64 %102
  store i32 %99, i32* %103, align 4
  %104 = load i32, i32* %12, align 4
  %105 = load i32, i32* %8, align 4
  %106 = sext i32 %105 to i64
  %107 = getelementptr inbounds [100 x i32], [100 x i32]* %5, i64 0, i64 %106
  store i32 %104, i32* %107, align 4
  br label %108

108:                                              ; preds = %73, %62
  br label %109

109:                                              ; preds = %108
  %110 = load i32, i32* %8, align 4
  %111 = add nsw i32 %110, 1
  store i32 %111, i32* %8, align 4
  br label %56

112:                                              ; preds = %56
  br label %113

113:                                              ; preds = %112
  %114 = load i32, i32* %9, align 4
  %115 = add nsw i32 %114, 1
  store i32 %115, i32* %9, align 4
  br label %51

116:                                              ; preds = %51
  store i32 0, i32* %8, align 4
  br label %117

117:                                              ; preds = %130, %116
  %118 = load i32, i32* %8, align 4
  %119 = load i32, i32* %10, align 4
  %120 = icmp slt i32 %118, %119
  br i1 %120, label %121, label %133

121:                                              ; preds = %117
  %122 = load i32, i32* %8, align 4
  %123 = sext i32 %122 to i64
  %124 = getelementptr inbounds [100 x i32], [100 x i32]* %5, i64 0, i64 %123
  %125 = load i32, i32* %124, align 4
  %126 = sext i32 %125 to i64
  %127 = getelementptr inbounds [100 x [100 x i8]], [100 x [100 x i8]]* %2, i64 0, i64 %126
  %128 = getelementptr inbounds [100 x i8], [100 x i8]* %127, i64 0, i64 0
  %129 = call i32 (i8*, ...) @printf(i8* getelementptr inbounds ([4 x i8], [4 x i8]* @.str.2, i64 0, i64 0), i8* %128)
  br label %130

130:                                              ; preds = %121
  %131 = load i32, i32* %8, align 4
  %132 = add nsw i32 %131, 1
  store i32 %132, i32* %8, align 4
  br label %117

133:                                              ; preds = %117
  store i32 0, i32* %7, align 4
  br label %134

134:                                              ; preds = %151, %133
  %135 = load i32, i32* %7, align 4
  %136 = load i32, i32* %6, align 4
  %137 = icmp slt i32 %135, %136
  br i1 %137, label %138, label %154

138:                                              ; preds = %134
  %139 = load i32, i32* %7, align 4
  %140 = sext i32 %139 to i64
  %141 = getelementptr inbounds [100 x i32], [100 x i32]* %4, i64 0, i64 %140
  %142 = load i32, i32* %141, align 4
  %143 = icmp slt i32 %142, 60
  br i1 %143, label %144, label %150

144:                                              ; preds = %138
  %145 = load i32, i32* %7, align 4
  %146 = sext i32 %145 to i64
  %147 = getelementptr inbounds [100 x [100 x i8]], [100 x [100 x i8]]* %2, i64 0, i64 %146
  %148 = getelementptr inbounds [100 x i8], [100 x i8]* %147, i64 0, i64 0
  %149 = call i32 (i8*, ...) @printf(i8* getelementptr inbounds ([4 x i8], [4 x i8]* @.str.2, i64 0, i64 0), i8* %148)
  br label %150

150:                                              ; preds = %144, %138
  br label %151

151:                                              ; preds = %150
  %152 = load i32, i32* %7, align 4
  %153 = add nsw i32 %152, 1
  store i32 %153, i32* %7, align 4
  br label %134

154:                                              ; preds = %134
  ret i32 0
}

declare dso_local i32 @__isoc99_scanf(i8*, ...) #1

declare dso_local i32 @printf(i8*, ...) #1


!llvm.module.flags = !{!0}
!llvm.ident = !{!1}

!0 = !{i32 1, !"wchar_size", i32 4}
!1 = !{!"clang version 10.0.0-4ubuntu1 "}
